; Function Attrs: nounwind uwtable
define internal void @extract_extradata_close(ptr noundef readonly captures(none) %0) #1 {
  %2 = getelementptr inbounds nuw i8, ptr %0, i64 16
  %3 = load ptr, ptr %2, align 8, !tbaa !4
  %4 = getelementptr inbounds nuw i8, ptr %3, i64 16
  tail call void @ff_av1_packet_uninit(ptr noundef nonnull %4) #8
  %5 = getelementptr inbounds nuw i8, ptr %3, i64 40
  tail call void @ff_h2645_packet_uninit(ptr noundef nonnull %5) #8
  ret void
}